; ModuleID = '64/2860.c'
source_filename = "64/2860.c"
target datalayout = "e-m:e-p270:32:32-p271:32:32-p272:64:64-i64:64-f80:128-n8:16:32:64-S128"
target triple = "x86_64-pc-linux-gnu"

@.str = private unnamed_addr constant [4 x i8] c"%d\0A\00", align 1
@.str.1 = private unnamed_addr constant [10 x i8] c"%d %d %d \00", align 1
@.str.2 = private unnamed_addr constant [29 x i8] c"(%d,%d,%d)-(%d,%d,%d)=%.2lf\0A\00", align 1

; Function Attrs: noinline nounwind uwtable
define dso_local i32 @main() #0 {
  %1 = alloca i32, align 4
  %2 = alloca i32, align 4
  %3 = alloca i32, align 4
  %4 = alloca i32, align 4
  %5 = alloca i32, align 4
  %6 = alloca i32, align 4
  %7 = alloca [10 x i32], align 16
  %8 = alloca [10 x i32], align 16
  %9 = alloca [10 x i32], align 16
  %10 = alloca [50 x i32], align 16
  %11 = alloca [50 x i32], align 16
  %12 = alloca [50 x double], align 16
  %13 = alloca [50 x double], align 16
  %14 = alloca double, align 8
  store i32 0, i32* %1, align 4
  store i32 0, i32* %6, align 4
  %15 = call i32 (i8*, ...) @__isoc99_scanf(i8* getelementptr inbounds ([4 x i8], [4 x i8]* @.str, i64 0, i64 0), i32* %3)
  store i32 0, i32* %2, align 4
  br label %16

16:                                               ; preds = %31, %0
  %17 = load i32, i32* %2, align 4
  %18 = load i32, i32* %3, align 4
  %19 = icmp slt i32 %17, %18
  br i1 %19, label %20, label %34

20:                                               ; preds = %16
  %21 = load i32, i32* %2, align 4
  %22 = sext i32 %21 to i64
  %23 = getelementptr inbounds [10 x i32], [10 x i32]* %7, i64 0, i64 %22
  %24 = load i32, i32* %2, align 4
  %25 = sext i32 %24 to i64
  %26 = getelementptr inbounds [10 x i32], [10 x i32]* %8, i64 0, i64 %25
  %27 = load i32, i32* %2, align 4
  %28 = sext i32 %27 to i64
  %29 = getelementptr inbounds [10 x i32], [10 x i32]* %9, i64 0, i64 %28
  %30 = call i32 (i8*, ...) @__isoc99_scanf(i8* getelementptr inbounds ([10 x i8], [10 x i8]* @.str.1, i64 0, i64 0), i32* %23, i32* %26, i32* %29)
  br label %31

31:                                               ; preds = %20
  %32 = load i32, i32* %2, align 4
  %33 = add nsw i32 %32, 1
  store i32 %33, i32* %2, align 4
  br label %16

34:                                               ; preds = %16
  store i32 0, i32* %5, align 4
  br label %35

35:                                               ; preds = %141, %34
  %36 = load i32, i32* %5, align 4
  %37 = load i32, i32* %3, align 4
  %38 = sub nsw i32 %37, 1
  %39 = icmp slt i32 %36, %38
  br i1 %39, label %40, label %144

40:                                               ; preds = %35
  %41 = load i32, i32* %5, align 4
  %42 = add nsw i32 %41, 1
  store i32 %42, i32* %2, align 4
  br label %43

43:                                               ; preds = %137, %40
  %44 = load i32, i32* %2, align 4
  %45 = load i32, i32* %3, align 4
  %46 = icmp slt i32 %44, %45
  br i1 %46, label %47, label %140

47:                                               ; preds = %43
  %48 = load i32, i32* %5, align 4
  %49 = sext i32 %48 to i64
  %50 = getelementptr inbounds [10 x i32], [10 x i32]* %7, i64 0, i64 %49
  %51 = load i32, i32* %50, align 4
  %52 = load i32, i32* %2, align 4
  %53 = sext i32 %52 to i64
  %54 = getelementptr inbounds [10 x i32], [10 x i32]* %7, i64 0, i64 %53
  %55 = load i32, i32* %54, align 4
  %56 = sub nsw i32 %51, %55
  %57 = sitofp i32 %56 to double
  %58 = fmul double 1.000000e+00, %57
  %59 = load i32, i32* %5, align 4
  %60 = sext i32 %59 to i64
  %61 = getelementptr inbounds [10 x i32], [10 x i32]* %7, i64 0, i64 %60
  %62 = load i32, i32* %61, align 4
  %63 = load i32, i32* %2, align 4
  %64 = sext i32 %63 to i64
  %65 = getelementptr inbounds [10 x i32], [10 x i32]* %7, i64 0, i64 %64
  %66 = load i32, i32* %65, align 4
  %67 = sub nsw i32 %62, %66
  %68 = sitofp i32 %67 to double
  %69 = fmul double %58, %68
  %70 = load i32, i32* %5, align 4
  %71 = sext i32 %70 to i64
  %72 = getelementptr inbounds [10 x i32], [10 x i32]* %8, i64 0, i64 %71
  %73 = load i32, i32* %72, align 4
  %74 = load i32, i32* %2, align 4
  %75 = sext i32 %74 to i64
  %76 = getelementptr inbounds [10 x i32], [10 x i32]* %8, i64 0, i64 %75
  %77 = load i32, i32* %76, align 4
  %78 = sub nsw i32 %73, %77
  %79 = sitofp i32 %78 to double
  %80 = fmul double 1.000000e+00, %79
  %81 = load i32, i32* %5, align 4
  %82 = sext i32 %81 to i64
  %83 = getelementptr inbounds [10 x i32], [10 x i32]* %8, i64 0, i64 %82
  %84 = load i32, i32* %83, align 4
  %85 = load i32, i32* %2, align 4
  %86 = sext i32 %85 to i64
  %87 = getelementptr inbounds [10 x i32], [10 x i32]* %8, i64 0, i64 %86
  %88 = load i32, i32* %87, align 4
  %89 = sub nsw i32 %84, %88
  %90 = sitofp i32 %89 to double
  %91 = fmul double %80, %90
  %92 = fadd double %69, %91
  %93 = load i32, i32* %5, align 4
  %94 = sext i32 %93 to i64
  %95 = getelementptr inbounds [10 x i32], [10 x i32]* %9, i64 0, i64 %94
  %96 = load i32, i32* %95, align 4
  %97 = load i32, i32* %2, align 4
  %98 = sext i32 %97 to i64
  %99 = getelementptr inbounds [10 x i32], [10 x i32]* %9, i64 0, i64 %98
  %100 = load i32, i32* %99, align 4
  %101 = sub nsw i32 %96, %100
  %102 = sitofp i32 %101 to double
  %103 = fmul double 1.000000e+00, %102
  %104 = load i32, i32* %5, align 4
  %105 = sext i32 %104 to i64
  %106 = getelementptr inbounds [10 x i32], [10 x i32]* %9, i64 0, i64 %105
  %107 = load i32, i32* %106, align 4
  %108 = load i32, i32* %2, align 4
  %109 = sext i32 %108 to i64
  %110 = getelementptr inbounds [10 x i32], [10 x i32]* %9, i64 0, i64 %109
  %111 = load i32, i32* %110, align 4
  %112 = sub nsw i32 %107, %111
  %113 = sitofp i32 %112 to double
  %114 = fmul double %103, %113
  %115 = fadd double %92, %114
  %116 = load i32, i32* %6, align 4
  %117 = sext i32 %116 to i64
  %118 = getelementptr inbounds [50 x double], [50 x double]* %12, i64 0, i64 %117
  store double %115, double* %118, align 8
  %119 = load i32, i32* %6, align 4
  %120 = sext i32 %119 to i64
  %121 = getelementptr inbounds [50 x double], [50 x double]* %12, i64 0, i64 %120
  %122 = load double, double* %121, align 8
  %123 = call double @sqrt(double %122) #3
  %124 = load i32, i32* %6, align 4
  %125 = sext i32 %124 to i64
  %126 = getelementptr inbounds [50 x double], [50 x double]* %13, i64 0, i64 %125
  store double %123, double* %126, align 8
  %127 = load i32, i32* %5, align 4
  %128 = load i32, i32* %6, align 4
  %129 = sext i32 %128 to i64
  %130 = getelementptr inbounds [50 x i32], [50 x i32]* %10, i64 0, i64 %129
  store i32 %127, i32* %130, align 4
  %131 = load i32, i32* %2, align 4
  %132 = load i32, i32* %6, align 4
  %133 = sext i32 %132 to i64
  %134 = getelementptr inbounds [50 x i32], [50 x i32]* %11, i64 0, i64 %133
  store i32 %131, i32* %134, align 4
  %135 = load i32, i32* %6, align 4
  %136 = add nsw i32 %135, 1
  store i32 %136, i32* %6, align 4
  br label %137

137:                                              ; preds = %47
  %138 = load i32, i32* %2, align 4
  %139 = add nsw i32 %138, 1
  store i32 %139, i32* %2, align 4
  br label %43

140:                                              ; preds = %43
  br label %141

141:                                              ; preds = %140
  %142 = load i32, i32* %5, align 4
  %143 = add nsw i32 %142, 1
  store i32 %143, i32* %5, align 4
  br label %35

144:                                              ; preds = %35
  store i32 1, i32* %4, align 4
  br label %145

145:                                              ; preds = %228, %144
  %146 = load i32, i32* %4, align 4
  %147 = load i32, i32* %6, align 4
  %148 = icmp sle i32 %146, %147
  br i1 %148, label %149, label %231

149:                                              ; preds = %145
  store i32 0, i32* %2, align 4
  br label %150

150:                                              ; preds = %224, %149
  %151 = load i32, i32* %2, align 4
  %152 = load i32, i32* %6, align 4
  %153 = load i32, i32* %4, align 4
  %154 = sub nsw i32 %152, %153
  %155 = icmp slt i32 %151, %154
  br i1 %155, label %156, label %227

156:                                              ; preds = %150
  %157 = load i32, i32* %2, align 4
  %158 = sext i32 %157 to i64
  %159 = getelementptr inbounds [50 x double], [50 x double]* %13, i64 0, i64 %158
  %160 = load double, double* %159, align 8
  %161 = load i32, i32* %2, align 4
  %162 = add nsw i32 %161, 1
  %163 = sext i32 %162 to i64
  %164 = getelementptr inbounds [50 x double], [50 x double]* %13, i64 0, i64 %163
  %165 = load double, double* %164, align 8
  %166 = fcmp olt double %160, %165
  br i1 %166, label %167, label %223

167:                                              ; preds = %156
  %168 = load i32, i32* %2, align 4
  %169 = add nsw i32 %168, 1
  %170 = sext i32 %169 to i64
  %171 = getelementptr inbounds [50 x double], [50 x double]* %13, i64 0, i64 %170
  %172 = load double, double* %171, align 8
  store double %172, double* %14, align 8
  %173 = load i32, i32* %2, align 4
  %174 = sext i32 %173 to i64
  %175 = getelementptr inbounds [50 x double], [50 x double]* %13, i64 0, i64 %174
  %176 = load double, double* %175, align 8
  %177 = load i32, i32* %2, align 4
  %178 = add nsw i32 %177, 1
  %179 = sext i32 %178 to i64
  %180 = getelementptr inbounds [50 x double], [50 x double]* %13, i64 0, i64 %179
  store double %176, double* %180, align 8
  %181 = load double, double* %14, align 8
  %182 = load i32, i32* %2, align 4
  %183 = sext i32 %182 to i64
  %184 = getelementptr inbounds [50 x double], [50 x double]* %13, i64 0, i64 %183
  store double %181, double* %184, align 8
  %185 = load i32, i32* %2, align 4
  %186 = add nsw i32 %185, 1
  %187 = sext i32 %186 to i64
  %188 = getelementptr inbounds [50 x i32], [50 x i32]* %10, i64 0, i64 %187
  %189 = load i32, i32* %188, align 4
  %190 = sitofp i32 %189 to double
  store double %190, double* %14, align 8
  %191 = load i32, i32* %2, align 4
  %192 = sext i32 %191 to i64
  %193 = getelementptr inbounds [50 x i32], [50 x i32]* %10, i64 0, i64 %192
  %194 = load i32, i32* %193, align 4
  %195 = load i32, i32* %2, align 4
  %196 = add nsw i32 %195, 1
  %197 = sext i32 %196 to i64
  %198 = getelementptr inbounds [50 x i32], [50 x i32]* %10, i64 0, i64 %197
  store i32 %194, i32* %198, align 4
  %199 = load double, double* %14, align 8
  %200 = fptosi double %199 to i32
  %201 = load i32, i32* %2, align 4
  %202 = sext i32 %201 to i64
  %203 = getelementptr inbounds [50 x i32], [50 x i32]* %10, i64 0, i64 %202
  store i32 %200, i32* %203, align 4
  %204 = load i32, i32* %2, align 4
  %205 = add nsw i32 %204, 1
  %206 = sext i32 %205 to i64
  %207 = getelementptr inbounds [50 x i32], [50 x i32]* %11, i64 0, i64 %206
  %208 = load i32, i32* %207, align 4
  %209 = sitofp i32 %208 to double
  store double %209, double* %14, align 8
  %210 = load i32, i32* %2, align 4
  %211 = sext i32 %210 to i64
  %212 = getelementptr inbounds [50 x i32], [50 x i32]* %11, i64 0, i64 %211
  %213 = load i32, i32* %212, align 4
  %214 = load i32, i32* %2, align 4
  %215 = add nsw i32 %214, 1
  %216 = sext i32 %215 to i64
  %217 = getelementptr inbounds [50 x i32], [50 x i32]* %11, i64 0, i64 %216
  store i32 %213, i32* %217, align 4
  %218 = load double, double* %14, align 8
  %219 = fptosi double %218 to i32
  %220 = load i32, i32* %2, align 4
  %221 = sext i32 %220 to i64
  %222 = getelementptr inbounds [50 x i32], [50 x i32]* %11, i64 0, i64 %221
  store i32 %219, i32* %222, align 4
  br label %223

223:                                              ; preds = %167, %156
  br label %224

224:                                              ; preds = %223
  %225 = load i32, i32* %2, align 4
  %226 = add nsw i32 %225, 1
  store i32 %226, i32* %2, align 4
  br label %150

227:                                              ; preds = %150
  br label %228

228:                                              ; preds = %227
  %229 = load i32, i32* %4, align 4
  %230 = add nsw i32 %229, 1
  store i32 %230, i32* %4, align 4
  br label %145

231:                                              ; preds = %145
  store i32 0, i32* %2, align 4
  br label %232

232:                                              ; preds = %284, %231
  %233 = load i32, i32* %2, align 4
  %234 = load i32, i32* %6, align 4
  %235 = icmp slt i32 %233, %234
  br i1 %235, label %236, label %287

236:                                              ; preds = %232
  %237 = load i32, i32* %2, align 4
  %238 = sext i32 %237 to i64
  %239 = getelementptr inbounds [50 x i32], [50 x i32]* %10, i64 0, i64 %238
  %240 = load i32, i32* %239, align 4
  %241 = sext i32 %240 to i64
  %242 = getelementptr inbounds [10 x i32], [10 x i32]* %7, i64 0, i64 %241
  %243 = load i32, i32* %242, align 4
  %244 = load i32, i32* %2, align 4
  %245 = sext i32 %244 to i64
  %246 = getelementptr inbounds [50 x i32], [50 x i32]* %10, i64 0, i64 %245
  %247 = load i32, i32* %246, align 4
  %248 = sext i32 %247 to i64
  %249 = getelementptr inbounds [10 x i32], [10 x i32]* %8, i64 0, i64 %248
  %250 = load i32, i32* %249, align 4
  %251 = load i32, i32* %2, align 4
  %252 = sext i32 %251 to i64
  %253 = getelementptr inbounds [50 x i32], [50 x i32]* %10, i64 0, i64 %252
  %254 = load i32, i32* %253, align 4
  %255 = sext i32 %254 to i64
  %256 = getelementptr inbounds [10 x i32], [10 x i32]* %9, i64 0, i64 %255
  %257 = load i32, i32* %256, align 4
  %258 = load i32, i32* %2, align 4
  %259 = sext i32 %258 to i64
  %260 = getelementptr inbounds [50 x i32], [50 x i32]* %11, i64 0, i64 %259
  %261 = load i32, i32* %260, align 4
  %262 = sext i32 %261 to i64
  %263 = getelementptr inbounds [10 x i32], [10 x i32]* %7, i64 0, i64 %262
  %264 = load i32, i32* %263, align 4
  %265 = load i32, i32* %2, align 4
  %266 = sext i32 %265 to i64
  %267 = getelementptr inbounds [50 x i32], [50 x i32]* %11, i64 0, i64 %266
  %268 = load i32, i32* %267, align 4
  %269 = sext i32 %268 to i64
  %270 = getelementptr inbounds [10 x i32], [10 x i32]* %8, i64 0, i64 %269
  %271 = load i32, i32* %270, align 4
  %272 = load i32, i32* %2, align 4
  %273 = sext i32 %272 to i64
  %274 = getelementptr inbounds [50 x i32], [50 x i32]* %11, i64 0, i64 %273
  %275 = load i32, i32* %274, align 4
  %276 = sext i32 %275 to i64
  %277 = getelementptr inbounds [10 x i32], [10 x i32]* %9, i64 0, i64 %276
  %278 = load i32, i32* %277, align 4
  %279 = load i32, i32* %2, align 4
  %280 = sext i32 %279 to i64
  %281 = getelementptr inbounds [50 x double], [50 x double]* %13, i64 0, i64 %280
  %282 = load double, double* %281, align 8
  %283 = call i32 (i8*, ...) @printf(i8* getelementptr inbounds ([29 x i8], [29 x i8]* @.str.2, i64 0, i64 0), i32 %243, i32 %250, i32 %257, i32 %264, i32 %271, i32 %278, double %282)
  br label %284

284:                                              ; preds = %236
  %285 = load i32, i32* %2, align 4
  %286 = add nsw i32 %285, 1
  store i32 %286, i32* %2, align 4
  br label %232

287:                                              ; preds = %232
  ret i32 0
}

declare dso_local i32 @__isoc99_scanf(i8*, ...) #1

; Function Attrs: nounwind
declare dso_local double @sqrt(double) #2

declare dso_local i32 @printf(i8*, ...) #1


!llvm.module.flags = !{!0}
!llvm.ident = !{!1}

!0 = !{i32 1, !"wchar_size", i32 4}
!1 = !{!"clang version 10.0.0-4ubuntu1 "}
